; Function Attrs: mustprogress nofree norecurse nosync nounwind willreturn memory(read, argmem: readwrite, inaccessiblemem: none) uwtable
define hidden ptr @ir_strtab_strl(ptr noundef readonly captures(none) %0, i32 noundef %1, ptr noundef writeonly captures(none) initializes((0, 8)) %2) local_unnamed_addr #7 {
  %4 = load ptr, ptr %0, align 8, !tbaa !4
  %5 = sext i32 %1 to i64
  %6 = getelementptr inbounds %struct._ir_strtab_bucket, ptr %4, i64 %5
  %7 = getelementptr inbounds nuw i8, ptr %6, i64 4
  %8 = load i32, ptr %7, align 4, !tbaa !22
  %9 = zext i32 %8 to i64
  store i64 %9, ptr %2, align 8, !tbaa !28
  %10 = getelementptr inbounds nuw i8, ptr %6, i64 8
  %11 = load ptr, ptr %10, align 8, !tbaa !23
  ret ptr %11
}